target datalayout = "e-m:e-p270:32:32-p271:32:32-p272:64:64-i64:64-i128:128-f80:128-n8:16:32:64-S128"
target triple = "x86_64-pc-linux-gnu"

%"class.icu_77::CaseFoldingUTextIterator" = type { ptr, ptr, i32, i32 }
%struct.UText = type { i32, i32, i32, i32, i64, i32, i32, i64, i32, i32, ptr, ptr, ptr, ptr, ptr, ptr, ptr, ptr, i64, i32, i32, i64, i32, i32 }

; Function Attrs: mustprogress uwtable
define noundef i32 @_ZN6icu_7724CaseFoldingUTextIterator4nextEv(ptr noundef nonnull align 8 dereferenceable(24) %0) #1 align 2 {
  %2 = alloca i32, align 4
  %3 = alloca ptr, align 8
  %4 = alloca i32, align 4
  %5 = alloca i32, align 4
  %6 = alloca i32, align 4
  %7 = alloca i16, align 2
  store ptr %0, ptr %3, align 8, !tbaa !3
  %8 = load ptr, ptr %3, align 8
  call void @llvm.lifetime.start.p0(i64 4, ptr %4) #4
  call void @llvm.lifetime.start.p0(i64 4, ptr %5) #4
  %9 = getelementptr inbounds nuw %"class.icu_77::CaseFoldingUTextIterator", ptr %8, i32 0, i32 1
  %10 = load ptr, ptr %9, align 8, !tbaa !10
  %11 = icmp eq ptr %10, null
  br i1 %11, label %12, label %88

12:                                               ; preds = %1
  %13 = getelementptr inbounds nuw %"class.icu_77::CaseFoldingUTextIterator", ptr %8, i32 0, i32 0
  %14 = load ptr, ptr %13, align 8, !tbaa !15
  %15 = getelementptr inbounds nuw %struct.UText, ptr %14, i32 0, i32 8
  %16 = load i32, ptr %15, align 8, !tbaa !16
  %17 = getelementptr inbounds nuw %"class.icu_77::CaseFoldingUTextIterator", ptr %8, i32 0, i32 0
  %18 = load ptr, ptr %17, align 8, !tbaa !15
  %19 = getelementptr inbounds nuw %struct.UText, ptr %18, i32 0, i32 9
  %20 = load i32, ptr %19, align 4, !tbaa !20
  %21 = icmp slt i32 %16, %20
  br i1 %21, label %22, label %50

22:                                               ; preds = %12
  %23 = getelementptr inbounds nuw %"class.icu_77::CaseFoldingUTextIterator", ptr %8, i32 0, i32 0
  %24 = load ptr, ptr %23, align 8, !tbaa !15
  %25 = getelementptr inbounds nuw %struct.UText, ptr %24, i32 0, i32 10
  %26 = load ptr, ptr %25, align 8, !tbaa !21
  %27 = getelementptr inbounds nuw %"class.icu_77::CaseFoldingUTextIterator", ptr %8, i32 0, i32 0
  %28 = load ptr, ptr %27, align 8, !tbaa !15
  %29 = getelementptr inbounds nuw %struct.UText, ptr %28, i32 0, i32 8
  %30 = load i32, ptr %29, align 8, !tbaa !16
  %31 = sext i32 %30 to i64
  %32 = getelementptr inbounds i16, ptr %26, i64 %31
  %33 = load i16, ptr %32, align 2, !tbaa !22
  %34 = zext i16 %33 to i32
  %35 = icmp slt i32 %34, 55296
  br i1 %35, label %36, label %50

36:                                               ; preds = %22
  %37 = getelementptr inbounds nuw %"class.icu_77::CaseFoldingUTextIterator", ptr %8, i32 0, i32 0
  %38 = load ptr, ptr %37, align 8, !tbaa !15
  %39 = getelementptr inbounds nuw %struct.UText, ptr %38, i32 0, i32 10
  %40 = load ptr, ptr %39, align 8, !tbaa !21
  %41 = getelementptr inbounds nuw %"class.icu_77::CaseFoldingUTextIterator", ptr %8, i32 0, i32 0
  %42 = load ptr, ptr %41, align 8, !tbaa !15
  %43 = getelementptr inbounds nuw %struct.UText, ptr %42, i32 0, i32 8
  %44 = load i32, ptr %43, align 8, !tbaa !16
  %45 = add nsw i32 %44, 1
  store i32 %45, ptr %43, align 8, !tbaa !16
  %46 = sext i32 %44 to i64
  %47 = getelementptr inbounds i16, ptr %40, i64 %46
  %48 = load i16, ptr %47, align 2, !tbaa !22
  %49 = zext i16 %48 to i32
  br label %54

50:                                               ; preds = %22, %12
  %51 = getelementptr inbounds nuw %"class.icu_77::CaseFoldingUTextIterator", ptr %8, i32 0, i32 0
  %52 = load ptr, ptr %51, align 8, !tbaa !15
  %53 = call i32 @utext_next32_77(ptr noundef %52)
  br label %54

54:                                               ; preds = %50, %36
  %55 = phi i32 [ %49, %36 ], [ %53, %50 ]
  store i32 %55, ptr %5, align 4, !tbaa !24
  %56 = load i32, ptr %5, align 4, !tbaa !24
  %57 = icmp eq i32 %56, -1
  br i1 %57, label %58, label %60

58:                                               ; preds = %54
  %59 = load i32, ptr %5, align 4, !tbaa !24
  store i32 %59, ptr %2, align 4
  store i32 1, ptr %6, align 4
  br label %142

60:                                               ; preds = %54
  %61 = load i32, ptr %5, align 4, !tbaa !24
  %62 = getelementptr inbounds nuw %"class.icu_77::CaseFoldingUTextIterator", ptr %8, i32 0, i32 1
  %63 = call i32 @ucase_toFullFolding_77(i32 noundef %61, ptr noundef %62, i32 noundef 0)
  %64 = getelementptr inbounds nuw %"class.icu_77::CaseFoldingUTextIterator", ptr %8, i32 0, i32 2
  store i32 %63, ptr %64, align 8, !tbaa !14
  %65 = getelementptr inbounds nuw %"class.icu_77::CaseFoldingUTextIterator", ptr %8, i32 0, i32 2
  %66 = load i32, ptr %65, align 8, !tbaa !14
  %67 = icmp sge i32 %66, 31
  br i1 %67, label %72, label %68

68:                                               ; preds = %60
  %69 = getelementptr inbounds nuw %"class.icu_77::CaseFoldingUTextIterator", ptr %8, i32 0, i32 2
  %70 = load i32, ptr %69, align 8, !tbaa !14
  %71 = icmp slt i32 %70, 0
  br i1 %71, label %72, label %86

72:                                               ; preds = %68, %60
  %73 = getelementptr inbounds nuw %"class.icu_77::CaseFoldingUTextIterator", ptr %8, i32 0, i32 2
  %74 = load i32, ptr %73, align 8, !tbaa !14
  %75 = icmp slt i32 %74, 0
  br i1 %75, label %76, label %81

76:                                               ; preds = %72
  %77 = getelementptr inbounds nuw %"class.icu_77::CaseFoldingUTextIterator", ptr %8, i32 0, i32 2
  %78 = load i32, ptr %77, align 8, !tbaa !14
  %79 = xor i32 %78, -1
  %80 = getelementptr inbounds nuw %"class.icu_77::CaseFoldingUTextIterator", ptr %8, i32 0, i32 2
  store i32 %79, ptr %80, align 8, !tbaa !14
  br label %81

81:                                               ; preds = %76, %72
  %82 = getelementptr inbounds nuw %"class.icu_77::CaseFoldingUTextIterator", ptr %8, i32 0, i32 2
  %83 = load i32, ptr %82, align 8, !tbaa !14
  store i32 %83, ptr %4, align 4, !tbaa !24
  %84 = getelementptr inbounds nuw %"class.icu_77::CaseFoldingUTextIterator", ptr %8, i32 0, i32 1
  store ptr null, ptr %84, align 8, !tbaa !10
  %85 = load i32, ptr %4, align 4, !tbaa !24
  store i32 %85, ptr %2, align 4
  store i32 1, ptr %6, align 4
  br label %142

86:                                               ; preds = %68
  %87 = getelementptr inbounds nuw %"class.icu_77::CaseFoldingUTextIterator", ptr %8, i32 0, i32 3
  store i32 0, ptr %87, align 4, !tbaa !25
  br label %88

88:                                               ; preds = %86, %1
  br label %89

89:                                               ; preds = %88
  %90 = getelementptr inbounds nuw %"class.icu_77::CaseFoldingUTextIterator", ptr %8, i32 0, i32 1
  %91 = load ptr, ptr %90, align 8, !tbaa !10
  %92 = getelementptr inbounds nuw %"class.icu_77::CaseFoldingUTextIterator", ptr %8, i32 0, i32 3
  %93 = load i32, ptr %92, align 4, !tbaa !25
  %94 = add nsw i32 %93, 1
  store i32 %94, ptr %92, align 4, !tbaa !25
  %95 = sext i32 %93 to i64
  %96 = getelementptr inbounds i16, ptr %91, i64 %95
  %97 = load i16, ptr %96, align 2, !tbaa !22
  %98 = zext i16 %97 to i32
  store i32 %98, ptr %4, align 4, !tbaa !24
  %99 = load i32, ptr %4, align 4, !tbaa !24
  %100 = and i32 %99, -1024
  %101 = icmp eq i32 %100, 55296
  br i1 %101, label %102, label %130

102:                                              ; preds = %89
  call void @llvm.lifetime.start.p0(i64 2, ptr %7) #4
  %103 = getelementptr inbounds nuw %"class.icu_77::CaseFoldingUTextIterator", ptr %8, i32 0, i32 3
  %104 = load i32, ptr %103, align 4, !tbaa !25
  %105 = getelementptr inbounds nuw %"class.icu_77::CaseFoldingUTextIterator", ptr %8, i32 0, i32 2
  %106 = load i32, ptr %105, align 8, !tbaa !14
  %107 = icmp ne i32 %104, %106
  br i1 %107, label %108, label %129

108:                                              ; preds = %102
  %109 = getelementptr inbounds nuw %"class.icu_77::CaseFoldingUTextIterator", ptr %8, i32 0, i32 1
  %110 = load ptr, ptr %109, align 8, !tbaa !10
  %111 = getelementptr inbounds nuw %"class.icu_77::CaseFoldingUTextIterator", ptr %8, i32 0, i32 3
  %112 = load i32, ptr %111, align 4, !tbaa !25
  %113 = sext i32 %112 to i64
  %114 = getelementptr inbounds i16, ptr %110, i64 %113
  %115 = load i16, ptr %114, align 2, !tbaa !22
  store i16 %115, ptr %7, align 2, !tbaa !26
  %116 = zext i16 %115 to i32
  %117 = and i32 %116, -1024
  %118 = icmp eq i32 %117, 56320
  br i1 %118, label %119, label %129

119:                                              ; preds = %108
  %120 = getelementptr inbounds nuw %"class.icu_77::CaseFoldingUTextIterator", ptr %8, i32 0, i32 3
  %121 = load i32, ptr %120, align 4, !tbaa !25
  %122 = add nsw i32 %121, 1
  store i32 %122, ptr %120, align 4, !tbaa !25
  %123 = load i32, ptr %4, align 4, !tbaa !24
  %124 = shl i32 %123, 10
  %125 = load i16, ptr %7, align 2, !tbaa !26
  %126 = zext i16 %125 to i32
  %127 = add nsw i32 %124, %126
  %128 = sub nsw i32 %127, 56613888
  store i32 %128, ptr %4, align 4, !tbaa !24
  br label %129

129:                                              ; preds = %119, %108, %102
  call void @llvm.lifetime.end.p0(i64 2, ptr %7) #4
  br label %130

130:                                              ; preds = %129, %89
  br label %131

131:                                              ; preds = %130
  br label %132

132:                                              ; preds = %131
  %133 = getelementptr inbounds nuw %"class.icu_77::CaseFoldingUTextIterator", ptr %8, i32 0, i32 3
  %134 = load i32, ptr %133, align 4, !tbaa !25
  %135 = getelementptr inbounds nuw %"class.icu_77::CaseFoldingUTextIterator", ptr %8, i32 0, i32 2
  %136 = load i32, ptr %135, align 8, !tbaa !14
  %137 = icmp sge i32 %134, %136
  br i1 %137, label %138, label %140

138:                                              ; preds = %132
  %139 = getelementptr inbounds nuw %"class.icu_77::CaseFoldingUTextIterator", ptr %8, i32 0, i32 1
  store ptr null, ptr %139, align 8, !tbaa !10
  br label %140

140:                                              ; preds = %138, %132
  %141 = load i32, ptr %4, align 4, !tbaa !24
  store i32 %141, ptr %2, align 4
  store i32 1, ptr %6, align 4
  br label %142

142:                                              ; preds = %140, %81, %58
  call void @llvm.lifetime.end.p0(i64 4, ptr %5) #4
  call void @llvm.lifetime.end.p0(i64 4, ptr %4) #4
  %143 = load i32, ptr %2, align 4
  ret i32 %143
}