; Function Attrs: mustprogress uwtable
define noundef range(i32 -1, -2147483648) i32 @_ZN6icu_7724CaseFoldingUTextIterator4nextEv(ptr noundef nonnull align 8 dereferenceable(24) %0) local_unnamed_addr #2 align 2 {
  %2 = getelementptr inbounds nuw i8, ptr %0, i64 8
  %3 = load ptr, ptr %2, align 8, !tbaa !8
  %4 = icmp eq ptr %3, null
  br i1 %4, label %5, label %._crit_edge

._crit_edge:                                      ; preds = %1
  %.phi.trans.insert = getelementptr inbounds nuw i8, ptr %0, i64 20
  %.pre19 = load i32, ptr %.phi.trans.insert, align 4, !tbaa !13
  %.phi.trans.insert20 = getelementptr inbounds nuw i8, ptr %0, i64 16
  %.pre21 = load i32, ptr %.phi.trans.insert20, align 8
  br label %33

5:                                                ; preds = %1
  %6 = load ptr, ptr %0, align 8, !tbaa !14
  %7 = getelementptr inbounds nuw i8, ptr %6, i64 40
  %8 = load i32, ptr %7, align 8, !tbaa !15
  %9 = getelementptr inbounds nuw i8, ptr %6, i64 44
  %10 = load i32, ptr %9, align 4, !tbaa !19
  %11 = icmp slt i32 %8, %10
  br i1 %11, label %12, label %21

12:                                               ; preds = %5
  %13 = getelementptr inbounds nuw i8, ptr %6, i64 48
  %14 = load ptr, ptr %13, align 8, !tbaa !20
  %15 = sext i32 %8 to i64
  %16 = getelementptr inbounds i16, ptr %14, i64 %15
  %17 = load i16, ptr %16, align 2, !tbaa !21
  %18 = icmp ult i16 %17, -10240
  br i1 %18, label %.thread, label %21

.thread:                                          ; preds = %12
  %19 = add nsw i32 %8, 1
  store i32 %19, ptr %7, align 8, !tbaa !15
  %20 = zext i16 %17 to i32
  br label %24

21:                                               ; preds = %5, %12
  %22 = tail call i32 @utext_next32_77(ptr noundef nonnull %6)
  %23 = icmp eq i32 %22, -1
  br i1 %23, label %59, label %24

24:                                               ; preds = %.thread, %21
  %25 = phi i32 [ %20, %.thread ], [ %22, %21 ]
  %26 = tail call i32 @ucase_toFullFolding_77(i32 noundef %25, ptr noundef nonnull %2, i32 noundef 0)
  %27 = getelementptr inbounds nuw i8, ptr %0, i64 16
  store i32 %26, ptr %27, align 8, !tbaa !12
  %or.cond = icmp ugt i32 %26, 30
  br i1 %or.cond, label %28, label %32

28:                                               ; preds = %24
  %29 = icmp slt i32 %26, 0
  br i1 %29, label %30, label %.sink.split

30:                                               ; preds = %28
  %31 = xor i32 %26, -1
  store i32 %31, ptr %27, align 8, !tbaa !12
  br label %.sink.split

32:                                               ; preds = %24
  %.pre = load ptr, ptr %2, align 8, !tbaa !8
  br label %33

33:                                               ; preds = %._crit_edge, %32
  %34 = phi i32 [ %.pre21, %._crit_edge ], [ %26, %32 ]
  %35 = phi i32 [ %.pre19, %._crit_edge ], [ 0, %32 ]
  %36 = phi ptr [ %3, %._crit_edge ], [ %.pre, %32 ]
  %37 = getelementptr inbounds nuw i8, ptr %0, i64 20
  %38 = add nsw i32 %35, 1
  store i32 %38, ptr %37, align 4, !tbaa !13
  %39 = sext i32 %35 to i64
  %40 = getelementptr inbounds i16, ptr %36, i64 %39
  %41 = load i16, ptr %40, align 2, !tbaa !21
  %42 = zext i16 %41 to i32
  %43 = and i32 %42, 64512
  %44 = icmp ne i32 %43, 55296
  %.not = icmp eq i32 %38, %34
  %or.cond18 = select i1 %44, i1 true, i1 %.not
  br i1 %or.cond18, label %57, label %45

45:                                               ; preds = %33
  %46 = sext i32 %38 to i64
  %47 = getelementptr inbounds i16, ptr %36, i64 %46
  %48 = load i16, ptr %47, align 2, !tbaa !21
  %49 = zext i16 %48 to i32
  %50 = and i32 %49, 64512
  %51 = icmp eq i32 %50, 56320
  br i1 %51, label %52, label %57

52:                                               ; preds = %45
  %53 = add nsw i32 %35, 2
  store i32 %53, ptr %37, align 4, !tbaa !13
  %54 = shl nuw nsw i32 %42, 10
  %55 = add nsw i32 %54, -56613888
  %56 = add nuw nsw i32 %55, %49
  br label %57

57:                                               ; preds = %45, %52, %33
  %58 = phi i32 [ %38, %33 ], [ %53, %52 ], [ %38, %45 ]
  %.1 = phi i32 [ %42, %33 ], [ %56, %52 ], [ %42, %45 ]
  %.not16 = icmp slt i32 %58, %34
  br i1 %.not16, label %59, label %.sink.split

.sink.split:                                      ; preds = %57, %28, %30
  %.0.ph = phi i32 [ %31, %30 ], [ %26, %28 ], [ %.1, %57 ]
  store ptr null, ptr %2, align 8, !tbaa !8
  br label %59

59:                                               ; preds = %.sink.split, %57, %21
  %.0 = phi i32 [ -1, %21 ], [ %.1, %57 ], [ %.0.ph, %.sink.split ]
  ret i32 %.0
}